target datalayout = "e-m:e-p270:32:32-p271:32:32-p272:64:64-i64:64-i128:128-f80:128-n8:16:32:64-S128"
target triple = "x86_64-pc-linux-gnu"

%"class.std::__cxx11::basic_string" = type { %"struct.std::__cxx11::basic_string<char>::_Alloc_hider", i64, %union.anon }
%"struct.std::__cxx11::basic_string<char>::_Alloc_hider" = type { ptr }
%union.anon = type { i64, [8 x i8] }
%"class.clang::ento::CheckerNameRef" = type { %"class.llvm::StringRef" }
%"class.llvm::StringRef" = type { ptr, i64 }
%"class.clang::ento::CheckerBase" = type { %"class.clang::ProgramPointTag", %"class.clang::ento::CheckerNameRef" }
%"class.clang::ProgramPointTag" = type { ptr, ptr }
%"class.(anonymous namespace)::PointerArithChecker" = type { %"class.clang::ento::Checker", %"class.clang::ento::BugType", %"class.clang::ento::BugType", %"class.llvm::SmallSet" }
%"class.clang::ento::Checker" = type { %"class.clang::ento::CheckerBase" }
%"class.clang::ento::BugType" = type <{ ptr, %"class.clang::ento::CheckerNameRef", %"class.std::__cxx11::basic_string", %"class.std::__cxx11::basic_string", ptr, i8, [7 x i8] }>
%"class.llvm::SmallSet" = type { %"class.llvm::SmallPtrSet" }
%"class.llvm::SmallPtrSet" = type { %"class.llvm::SmallPtrSetImpl.base", [8 x ptr] }
%"class.llvm::SmallPtrSetImpl.base" = type { %"class.llvm::SmallPtrSetImplBase.base" }
%"class.llvm::SmallPtrSetImplBase.base" = type <{ ptr, ptr, i32, i32, i32 }>
%"class.llvm::SmallPtrSetImplBase" = type <{ ptr, ptr, i32, i32, i32, [4 x i8] }>

@_ZTVN5clang4ento7BugTypeE = external unnamed_addr constant { [5 x ptr] }, align 8

; Function Attrs: mustprogress nounwind uwtable
define linkonce_odr hidden noundef zeroext i1 @_ZNK4llvm19SmallPtrSetImplBase7isSmallEv(ptr noundef nonnull align 8 dereferenceable(28) %0) #0 comdat align 2 {
  %2 = alloca ptr, align 8
  store ptr %0, ptr %2, align 8
  %3 = load ptr, ptr %2, align 8
  %4 = getelementptr inbounds nuw %"class.llvm::SmallPtrSetImplBase", ptr %3, i32 0, i32 1
  %5 = load ptr, ptr %4, align 8
  %6 = getelementptr inbounds nuw %"class.llvm::SmallPtrSetImplBase", ptr %3, i32 0, i32 0
  %7 = load ptr, ptr %6, align 8
  %8 = icmp eq ptr %5, %7
  ret i1 %8
}

; Function Attrs: mustprogress nounwind uwtable
define linkonce_odr hidden void @_ZN4llvm19SmallPtrSetImplBaseD2Ev(ptr noundef nonnull align 8 dereferenceable(28) %0) unnamed_addr #0 comdat align 2 {
  %2 = alloca ptr, align 8
  store ptr %0, ptr %2, align 8
  %3 = load ptr, ptr %2, align 8
  %4 = call noundef zeroext i1 @_ZNK4llvm19SmallPtrSetImplBase7isSmallEv(ptr noundef nonnull align 8 dereferenceable(28) %3)
  br i1 %4, label %8, label %5

5:                                                ; preds = %1
  %6 = getelementptr inbounds nuw %"class.llvm::SmallPtrSetImplBase", ptr %3, i32 0, i32 1
  %7 = load ptr, ptr %6, align 8
  call void @free(ptr noundef %7) #11
  br label %8

8:                                                ; preds = %5, %1
  ret void
}

; Function Attrs: mustprogress nounwind uwtable
define linkonce_odr hidden void @_ZN4llvm15SmallPtrSetImplIPN5clang14IdentifierInfoEED2Ev(ptr noundef nonnull align 8 dereferenceable(28) %0) unnamed_addr #0 comdat align 2 {
  %2 = alloca ptr, align 8
  store ptr %0, ptr %2, align 8
  %3 = load ptr, ptr %2, align 8
  call void @_ZN4llvm19SmallPtrSetImplBaseD2Ev(ptr noundef nonnull align 8 dereferenceable(28) %3) #11
  ret void
}

; Function Attrs: mustprogress nounwind uwtable
define linkonce_odr hidden void @_ZN5clang4ento11CheckerBaseD2Ev(ptr noundef nonnull align 8 dereferenceable(32) %0) unnamed_addr #0 comdat align 2 {
  %2 = alloca ptr, align 8
  store ptr %0, ptr %2, align 8
  %3 = load ptr, ptr %2, align 8
  call void @_ZN5clang15ProgramPointTagD2Ev(ptr noundef nonnull align 8 dereferenceable(16) %3) #11
  ret void
}

; Function Attrs: mustprogress nounwind uwtable
define linkonce_odr hidden void @_ZN4llvm11SmallPtrSetIPN5clang14IdentifierInfoELj8EED2Ev(ptr noundef nonnull align 8 dereferenceable(96) %0) unnamed_addr #0 comdat align 2 {
  %2 = alloca ptr, align 8
  store ptr %0, ptr %2, align 8
  %3 = load ptr, ptr %2, align 8
  call void @_ZN4llvm15SmallPtrSetImplIPN5clang14IdentifierInfoEED2Ev(ptr noundef nonnull align 8 dereferenceable(28) %3) #11
  ret void
}

; Function Attrs: mustprogress nounwind uwtable
define linkonce_odr hidden void @_ZN5clang4ento7CheckerINS0_5check7PreStmtINS_14BinaryOperatorEEEJNS3_INS_13UnaryOperatorEEENS3_INS_18ArraySubscriptExprEEENS3_INS_8CastExprEEENS2_8PostStmtISA_EENSC_INS_10CXXNewExprEEENSC_INS_8CallExprEEENS2_11DeadSymbolsEEED2Ev(ptr noundef nonnull align 8 dereferenceable(32) %0) unnamed_addr #0 comdat align 2 {
  %2 = alloca ptr, align 8
  store ptr %0, ptr %2, align 8
  %3 = load ptr, ptr %2, align 8
  call void @_ZN5clang4ento11CheckerBaseD2Ev(ptr noundef nonnull align 8 dereferenceable(32) %3) #11
  ret void
}

; Function Attrs: mustprogress nounwind uwtable
define linkonce_odr hidden void @_ZN5clang4ento7BugTypeD2Ev(ptr noundef nonnull align 8 dereferenceable(97) %0) unnamed_addr #0 comdat align 2 {
  %2 = alloca ptr, align 8
  store ptr %0, ptr %2, align 8
  %3 = load ptr, ptr %2, align 8
  store ptr getelementptr inbounds inrange(-16, 24) ({ [5 x ptr] }, ptr @_ZTVN5clang4ento7BugTypeE, i32 0, i32 0, i32 2), ptr %3, align 8
  %4 = getelementptr inbounds nuw %"class.clang::ento::BugType", ptr %3, i32 0, i32 3
  call void @_ZNSt7__cxx1112basic_stringIcSt11char_traitsIcESaIcEED1Ev(ptr noundef nonnull align 8 dereferenceable(32) %4) #11
  %5 = getelementptr inbounds nuw %"class.clang::ento::BugType", ptr %3, i32 0, i32 2
  call void @_ZNSt7__cxx1112basic_stringIcSt11char_traitsIcESaIcEED1Ev(ptr noundef nonnull align 8 dereferenceable(32) %5) #11
  ret void
}

; Function Attrs: mustprogress nounwind uwtable
define linkonce_odr hidden void @_ZN4llvm8SmallSetIPN5clang14IdentifierInfoELj8ESt4lessIS3_EED2Ev(ptr noundef nonnull align 8 dereferenceable(96) %0) unnamed_addr #0 comdat align 2 {
  %2 = alloca ptr, align 8
  store ptr %0, ptr %2, align 8
  %3 = load ptr, ptr %2, align 8
  call void @_ZN4llvm11SmallPtrSetIPN5clang14IdentifierInfoELj8EED2Ev(ptr noundef nonnull align 8 dereferenceable(96) %3) #11
  ret void
}

; Function Attrs: mustprogress nounwind uwtable
define internal void @_ZN12_GLOBAL__N_119PointerArithCheckerD2Ev(ptr noundef nonnull align 8 dereferenceable(336) %0) unnamed_addr #0 align 2 {
  %2 = alloca ptr, align 8
  store ptr %0, ptr %2, align 8
  %3 = load ptr, ptr %2, align 8
  store ptr getelementptr inbounds inrange(-16, 32) ({ [6 x ptr] }, ptr @_ZTVN12_GLOBAL__N_119PointerArithCheckerE, i32 0, i32 0, i32 2), ptr %3, align 8
  %4 = getelementptr inbounds nuw %"class.(anonymous namespace)::PointerArithChecker", ptr %3, i32 0, i32 3
  call void @_ZN4llvm8SmallSetIPN5clang14IdentifierInfoELj8ESt4lessIS3_EED2Ev(ptr noundef nonnull align 8 dereferenceable(96) %4) #11
  %5 = getelementptr inbounds nuw %"class.(anonymous namespace)::PointerArithChecker", ptr %3, i32 0, i32 2
  call void @_ZN5clang4ento7BugTypeD2Ev(ptr noundef nonnull align 8 dereferenceable(97) %5) #11
  %6 = getelementptr inbounds nuw %"class.(anonymous namespace)::PointerArithChecker", ptr %3, i32 0, i32 1
  call void @_ZN5clang4ento7BugTypeD2Ev(ptr noundef nonnull align 8 dereferenceable(97) %6) #11
  call void @_ZN5clang4ento7CheckerINS0_5check7PreStmtINS_14BinaryOperatorEEEJNS3_INS_13UnaryOperatorEEENS3_INS_18ArraySubscriptExprEEENS3_INS_8CastExprEEENS2_8PostStmtISA_EENSC_INS_10CXXNewExprEEENSC_INS_8CallExprEEENS2_11DeadSymbolsEEED2Ev(ptr noundef nonnull align 8 dereferenceable(32) %3) #11
  ret void
}

; Function Attrs: mustprogress nounwind uwtable
define internal void @_ZN12_GLOBAL__N_119PointerArithCheckerD0Ev(ptr noundef nonnull align 8 dereferenceable(336) %0) unnamed_addr #0 align 2 {
  %2 = alloca ptr, align 8
  store ptr %0, ptr %2, align 8
  %3 = load ptr, ptr %2, align 8
  call void @_ZN12_GLOBAL__N_119PointerArithCheckerD2Ev(ptr noundef nonnull align 8 dereferenceable(336) %3) #11
  call void @_ZdlPvm(ptr noundef %3, i64 noundef 336) #12
  ret void
}